target datalayout = "e-m:e-p270:32:32-p271:32:32-p272:64:64-i64:64-i128:128-f80:128-n8:16:32:64-S128"
target triple = "x86_64-pc-linux-gnu"

%struct.H5B_class_t = type { i32, i64, ptr, ptr, ptr, ptr, ptr, ptr, i8, i8, i32, ptr, ptr, ptr, ptr }
%struct.H5O_stab_t = type { i64, i64 }
%struct.H5O_loc_t = type { ptr, i64, i8 }

@H5B_SNODE = external global [1 x %struct.H5B_class_t], align 16
@.str = private unnamed_addr constant [101 x i8] c"generated/home/dtcxzyw/WorkSpace/Projects/compilers/llvm-opt-benchmark/bench/hdf5/hdf5/src/H5Gstab.c\00", align 1
@H5E_SYM_g = external global i64, align 8
@H5E_CANTINIT_g = external global i64, align 8
@H5E_PROTECT_g = external global i64, align 8
@.str.6 = private unnamed_addr constant [38 x i8] c"unable to unprotect symbol table heap\00", align 1
@H5E_BADMESG_g = external global i64, align 8
@H5E_NOTFOUND_g = external global i64, align 8
@H5E_BTREE_g = external global i64, align 8
@H5E_HEAP_g = external global i64, align 8
@__func__.H5G__stab_valid = private unnamed_addr constant [16 x i8] c"H5G__stab_valid\00", align 1
@.str.25 = private unnamed_addr constant [36 x i8] c"unable to read symbol table message\00", align 1
@.str.26 = private unnamed_addr constant [24 x i8] c"unable to locate b-tree\00", align 1
@.str.27 = private unnamed_addr constant [22 x i8] c"unable to locate heap\00", align 1
@.str.28 = private unnamed_addr constant [39 x i8] c"unable to correct symbol table message\00", align 1

; Function Attrs: nounwind uwtable
define i32 @H5G__stab_valid(ptr noundef %0, ptr noundef %1) #0 {
  %3 = alloca ptr, align 8
  %4 = alloca ptr, align 8
  %5 = alloca %struct.H5O_stab_t, align 8
  %6 = alloca ptr, align 8
  %7 = alloca i8, align 1
  %8 = alloca i32, align 4
  %9 = alloca i64, align 8
  %10 = alloca i8, align 1
  store ptr %0, ptr %3, align 8
  store ptr %1, ptr %4, align 8
  store ptr null, ptr %6, align 8
  store i8 0, ptr %7, align 1
  store i32 0, ptr %8, align 4
  store i64 -1, ptr %9, align 8
  store i8 0, ptr %10, align 1
  %11 = load ptr, ptr %3, align 8
  %12 = getelementptr inbounds %struct.H5O_loc_t, ptr %11, i32 0, i32 1
  %13 = load i64, ptr %12, align 8
  call void @H5AC_tag(i64 noundef %13, ptr noundef %9)
  %14 = load ptr, ptr %3, align 8
  %15 = call ptr @H5O_msg_read(ptr noundef %14, i32 noundef 17, ptr noundef %5)
  %16 = icmp eq ptr null, %15
  br i1 %16, label %17, label %32

17:                                               ; preds = %2
  br label %18

18:                                               ; preds = %17
  br label %19

19:                                               ; preds = %18
  br label %20

20:                                               ; preds = %19
  %21 = load i64, ptr @H5E_SYM_g, align 8
  %22 = load i64, ptr @H5E_BADMESG_g, align 8
  %23 = call i32 (ptr, ptr, i32, i64, i64, ptr, ...) @H5E_printf_stack(ptr noundef @.str, ptr noundef @__func__.H5G__stab_valid, i32 noundef 969, i64 noundef %21, i64 noundef %22, ptr noundef @.str.25)
  br label %24

24:                                               ; preds = %20
  store i8 1, ptr %10, align 1
  %25 = load i8, ptr %10, align 1
  %26 = trunc i8 %25 to i1
  %27 = zext i1 %26 to i8
  store i8 %27, ptr %10, align 1
  br label %28

28:                                               ; preds = %24
  br label %29

29:                                               ; preds = %28
  store i32 -1, ptr %8, align 4
  br label %139

30:                                               ; No predecessors!
  br label %31

31:                                               ; preds = %30
  br label %32

32:                                               ; preds = %31, %2
  %33 = load ptr, ptr %3, align 8
  %34 = getelementptr inbounds %struct.H5O_loc_t, ptr %33, i32 0, i32 0
  %35 = load ptr, ptr %34, align 8
  %36 = getelementptr inbounds %struct.H5O_stab_t, ptr %5, i32 0, i32 0
  %37 = load i64, ptr %36, align 8
  %38 = call i32 @H5B_valid(ptr noundef %35, ptr noundef @H5B_SNODE, i64 noundef %37)
  %39 = icmp slt i32 %38, 0
  br i1 %39, label %40, label %73

40:                                               ; preds = %32
  %41 = load ptr, ptr %4, align 8
  %42 = icmp ne ptr %41, null
  br i1 %42, label %43, label %52

43:                                               ; preds = %40
  %44 = load ptr, ptr %3, align 8
  %45 = getelementptr inbounds %struct.H5O_loc_t, ptr %44, i32 0, i32 0
  %46 = load ptr, ptr %45, align 8
  %47 = load ptr, ptr %4, align 8
  %48 = getelementptr inbounds %struct.H5O_stab_t, ptr %47, i32 0, i32 0
  %49 = load i64, ptr %48, align 8
  %50 = call i32 @H5B_valid(ptr noundef %46, ptr noundef @H5B_SNODE, i64 noundef %49)
  %51 = icmp slt i32 %50, 0
  br i1 %51, label %52, label %67

52:                                               ; preds = %43, %40
  br label %53

53:                                               ; preds = %52
  br label %54

54:                                               ; preds = %53
  br label %55

55:                                               ; preds = %54
  %56 = load i64, ptr @H5E_BTREE_g, align 8
  %57 = load i64, ptr @H5E_NOTFOUND_g, align 8
  %58 = call i32 (ptr, ptr, i32, i64, i64, ptr, ...) @H5E_printf_stack(ptr noundef @.str, ptr noundef @__func__.H5G__stab_valid, i32 noundef 976, i64 noundef %56, i64 noundef %57, ptr noundef @.str.26)
  br label %59

59:                                               ; preds = %55
  store i8 1, ptr %10, align 1
  %60 = load i8, ptr %10, align 1
  %61 = trunc i8 %60 to i1
  %62 = zext i1 %61 to i8
  store i8 %62, ptr %10, align 1
  br label %63

63:                                               ; preds = %59
  br label %64

64:                                               ; preds = %63
  store i32 -1, ptr %8, align 4
  br label %139

65:                                               ; No predecessors!
  br label %66

66:                                               ; preds = %65
  br label %72

67:                                               ; preds = %43
  %68 = load ptr, ptr %4, align 8
  %69 = getelementptr inbounds %struct.H5O_stab_t, ptr %68, i32 0, i32 0
  %70 = load i64, ptr %69, align 8
  %71 = getelementptr inbounds %struct.H5O_stab_t, ptr %5, i32 0, i32 0
  store i64 %70, ptr %71, align 8
  store i8 1, ptr %7, align 1
  br label %72

72:                                               ; preds = %67, %66
  br label %73

73:                                               ; preds = %72, %32
  %74 = load ptr, ptr %3, align 8
  %75 = getelementptr inbounds %struct.H5O_loc_t, ptr %74, i32 0, i32 0
  %76 = load ptr, ptr %75, align 8
  %77 = getelementptr inbounds %struct.H5O_stab_t, ptr %5, i32 0, i32 1
  %78 = load i64, ptr %77, align 8
  %79 = call ptr @H5HL_protect(ptr noundef %76, i64 noundef %78, i32 noundef 128)
  store ptr %79, ptr %6, align 8
  %80 = icmp eq ptr null, %79
  br i1 %80, label %81, label %114

81:                                               ; preds = %73
  %82 = load ptr, ptr %4, align 8
  %83 = icmp ne ptr %82, null
  br i1 %83, label %84, label %93

84:                                               ; preds = %81
  %85 = load ptr, ptr %3, align 8
  %86 = getelementptr inbounds %struct.H5O_loc_t, ptr %85, i32 0, i32 0
  %87 = load ptr, ptr %86, align 8
  %88 = load ptr, ptr %4, align 8
  %89 = getelementptr inbounds %struct.H5O_stab_t, ptr %88, i32 0, i32 1
  %90 = load i64, ptr %89, align 8
  %91 = call ptr @H5HL_protect(ptr noundef %87, i64 noundef %90, i32 noundef 128)
  store ptr %91, ptr %6, align 8
  %92 = icmp eq ptr null, %91
  br i1 %92, label %93, label %108

93:                                               ; preds = %84, %81
  br label %94

94:                                               ; preds = %93
  br label %95

95:                                               ; preds = %94
  br label %96

96:                                               ; preds = %95
  %97 = load i64, ptr @H5E_HEAP_g, align 8
  %98 = load i64, ptr @H5E_NOTFOUND_g, align 8
  %99 = call i32 (ptr, ptr, i32, i64, i64, ptr, ...) @H5E_printf_stack(ptr noundef @.str, ptr noundef @__func__.H5G__stab_valid, i32 noundef 991, i64 noundef %97, i64 noundef %98, ptr noundef @.str.27)
  br label %100

100:                                              ; preds = %96
  store i8 1, ptr %10, align 1
  %101 = load i8, ptr %10, align 1
  %102 = trunc i8 %101 to i1
  %103 = zext i1 %102 to i8
  store i8 %103, ptr %10, align 1
  br label %104

104:                                              ; preds = %100
  br label %105

105:                                              ; preds = %104
  store i32 -1, ptr %8, align 4
  br label %139

106:                                              ; No predecessors!
  br label %107

107:                                              ; preds = %106
  br label %113

108:                                              ; preds = %84
  %109 = load ptr, ptr %4, align 8
  %110 = getelementptr inbounds %struct.H5O_stab_t, ptr %109, i32 0, i32 1
  %111 = load i64, ptr %110, align 8
  %112 = getelementptr inbounds %struct.H5O_stab_t, ptr %5, i32 0, i32 1
  store i64 %111, ptr %112, align 8
  store i8 1, ptr %7, align 1
  br label %113

113:                                              ; preds = %108, %107
  br label %114

114:                                              ; preds = %113, %73
  %115 = load i8, ptr %7, align 1
  %116 = trunc i8 %115 to i1
  br i1 %116, label %117, label %138

117:                                              ; preds = %114
  %118 = call i32 @H5E_clear_stack()
  %119 = load ptr, ptr %3, align 8
  %120 = call i32 @H5O_msg_write(ptr noundef %119, i32 noundef 17, i32 noundef 0, i32 noundef 3, ptr noundef %5)
  %121 = icmp slt i32 %120, 0
  br i1 %121, label %122, label %137

122:                                              ; preds = %117
  br label %123

123:                                              ; preds = %122
  br label %124

124:                                              ; preds = %123
  br label %125

125:                                              ; preds = %124
  %126 = load i64, ptr @H5E_SYM_g, align 8
  %127 = load i64, ptr @H5E_CANTINIT_g, align 8
  %128 = call i32 (ptr, ptr, i32, i64, i64, ptr, ...) @H5E_printf_stack(ptr noundef @.str, ptr noundef @__func__.H5G__stab_valid, i32 noundef 1004, i64 noundef %126, i64 noundef %127, ptr noundef @.str.28)
  br label %129

129:                                              ; preds = %125
  store i8 1, ptr %10, align 1
  %130 = load i8, ptr %10, align 1
  %131 = trunc i8 %130 to i1
  %132 = zext i1 %131 to i8
  store i8 %132, ptr %10, align 1
  br label %133

133:                                              ; preds = %129
  br label %134

134:                                              ; preds = %133
  store i32 -1, ptr %8, align 4
  br label %139

135:                                              ; No predecessors!
  br label %136

136:                                              ; preds = %135
  br label %137

137:                                              ; preds = %136, %117
  br label %138

138:                                              ; preds = %137, %114
  br label %139

139:                                              ; preds = %138, %134, %105, %64, %29
  %140 = load ptr, ptr %6, align 8
  %141 = icmp ne ptr %140, null
  br i1 %141, label %142, label %159

142:                                              ; preds = %139
  %143 = load ptr, ptr %6, align 8
  %144 = call i32 @H5HL_unprotect(ptr noundef %143)
  %145 = icmp slt i32 %144, 0
  br i1 %145, label %146, label %159

146:                                              ; preds = %142
  br label %147

147:                                              ; preds = %146
  br label %148

148:                                              ; preds = %147
  br label %149

149:                                              ; preds = %148
  %150 = load i64, ptr @H5E_SYM_g, align 8
  %151 = load i64, ptr @H5E_PROTECT_g, align 8
  %152 = call i32 (ptr, ptr, i32, i64, i64, ptr, ...) @H5E_printf_stack(ptr noundef @.str, ptr noundef @__func__.H5G__stab_valid, i32 noundef 1010, i64 noundef %150, i64 noundef %151, ptr noundef @.str.6)
  br label %153

153:                                              ; preds = %149
  store i8 1, ptr %10, align 1
  %154 = load i8, ptr %10, align 1
  %155 = trunc i8 %154 to i1
  %156 = zext i1 %155 to i8
  store i8 %156, ptr %10, align 1
  br label %157

157:                                              ; preds = %153
  store i32 -1, ptr %8, align 4
  br label %158

158:                                              ; preds = %157
  br label %159

159:                                              ; preds = %158, %142, %139
  %160 = load i64, ptr %9, align 8
  call void @H5AC_tag(i64 noundef %160, ptr noundef null)
  %161 = load i32, ptr %8, align 4
  ret i32 %161
}