; Function Attrs: nounwind uwtable
define range(i32 -1, 1) i32 @H5G__stab_valid(ptr noundef %0, ptr noundef readonly %1) local_unnamed_addr #0 {
  %3 = alloca %struct.H5O_stab_t, align 8
  %4 = alloca i64, align 8
  store i64 -1, ptr %4, align 8
  %5 = getelementptr inbounds i8, ptr %0, i64 8
  %6 = load i64, ptr %5, align 8
  call void @H5AC_tag(i64 noundef %6, ptr noundef nonnull %4) #6
  %7 = call ptr @H5O_msg_read(ptr noundef %0, i32 noundef 17, ptr noundef nonnull %3) #6
  %8 = icmp eq ptr %7, null
  br i1 %8, label %9, label %13

9:                                                ; preds = %2
  %10 = load i64, ptr @H5E_SYM_g, align 8
  %11 = load i64, ptr @H5E_BADMESG_g, align 8
  %12 = call i32 (ptr, ptr, i32, i64, i64, ptr, ...) @H5E_printf_stack(ptr noundef nonnull @.str, ptr noundef nonnull @__func__.H5G__stab_valid, i32 noundef 969, i64 noundef %10, i64 noundef %11, ptr noundef nonnull @.str.25) #6
  br label %.thread36

13:                                               ; preds = %2
  %14 = load ptr, ptr %0, align 8
  %15 = load i64, ptr %3, align 8
  %16 = call i32 @H5B_valid(ptr noundef %14, ptr noundef nonnull @H5B_SNODE, i64 noundef %15) #6
  %17 = icmp slt i32 %16, 0
  br i1 %17, label %18, label %30

18:                                               ; preds = %13
  %.not = icmp eq ptr %1, null
  br i1 %.not, label %24, label %19

19:                                               ; preds = %18
  %20 = load ptr, ptr %0, align 8
  %21 = load i64, ptr %1, align 8
  %22 = call i32 @H5B_valid(ptr noundef %20, ptr noundef nonnull @H5B_SNODE, i64 noundef %21) #6
  %23 = icmp slt i32 %22, 0
  br i1 %23, label %24, label %28

24:                                               ; preds = %18, %19
  %25 = load i64, ptr @H5E_BTREE_g, align 8
  %26 = load i64, ptr @H5E_NOTFOUND_g, align 8
  %27 = call i32 (ptr, ptr, i32, i64, i64, ptr, ...) @H5E_printf_stack(ptr noundef nonnull @.str, ptr noundef nonnull @__func__.H5G__stab_valid, i32 noundef 976, i64 noundef %25, i64 noundef %26, ptr noundef nonnull @.str.26) #6
  br label %.thread36

28:                                               ; preds = %19
  %29 = load i64, ptr %1, align 8
  store i64 %29, ptr %3, align 8
  br label %30

30:                                               ; preds = %28, %13
  %31 = load ptr, ptr %0, align 8
  %32 = getelementptr inbounds i8, ptr %3, i64 8
  %33 = load i64, ptr %32, align 8
  %34 = call ptr @H5HL_protect(ptr noundef %31, i64 noundef %33, i32 noundef 128) #6
  %35 = icmp eq ptr %34, null
  br i1 %35, label %36, label %48

36:                                               ; preds = %30
  %.not31 = icmp eq ptr %1, null
  br i1 %.not31, label %43, label %37

37:                                               ; preds = %36
  %38 = load ptr, ptr %0, align 8
  %39 = getelementptr inbounds i8, ptr %1, i64 8
  %40 = load i64, ptr %39, align 8
  %41 = call ptr @H5HL_protect(ptr noundef %38, i64 noundef %40, i32 noundef 128) #6
  %42 = icmp eq ptr %41, null
  br i1 %42, label %43, label %.thread

43:                                               ; preds = %36, %37
  %44 = load i64, ptr @H5E_HEAP_g, align 8
  %45 = load i64, ptr @H5E_NOTFOUND_g, align 8
  %46 = call i32 (ptr, ptr, i32, i64, i64, ptr, ...) @H5E_printf_stack(ptr noundef nonnull @.str, ptr noundef nonnull @__func__.H5G__stab_valid, i32 noundef 991, i64 noundef %44, i64 noundef %45, ptr noundef nonnull @.str.27) #6
  br label %.thread36

.thread:                                          ; preds = %37
  %47 = load i64, ptr %39, align 8
  store i64 %47, ptr %32, align 8
  br label %49

48:                                               ; preds = %30
  br i1 %17, label %49, label %57

49:                                               ; preds = %.thread, %48
  %.12435 = phi ptr [ %41, %.thread ], [ %34, %48 ]
  %50 = call i32 @H5E_clear_stack() #6
  %51 = call i32 @H5O_msg_write(ptr noundef nonnull %0, i32 noundef 17, i32 noundef 0, i32 noundef 3, ptr noundef nonnull %3) #6
  %52 = icmp slt i32 %51, 0
  br i1 %52, label %53, label %57

53:                                               ; preds = %49
  %54 = load i64, ptr @H5E_SYM_g, align 8
  %55 = load i64, ptr @H5E_CANTINIT_g, align 8
  %56 = call i32 (ptr, ptr, i32, i64, i64, ptr, ...) @H5E_printf_stack(ptr noundef nonnull @.str, ptr noundef nonnull @__func__.H5G__stab_valid, i32 noundef 1004, i64 noundef %54, i64 noundef %55, ptr noundef nonnull @.str.28) #6
  br label %57

57:                                               ; preds = %53, %49, %48
  %.2 = phi ptr [ %.12435, %53 ], [ %.12435, %49 ], [ %34, %48 ]
  %.0 = phi i32 [ -1, %53 ], [ 0, %49 ], [ 0, %48 ]
  %58 = call i32 @H5HL_unprotect(ptr noundef nonnull %.2) #6
  %59 = icmp slt i32 %58, 0
  br i1 %59, label %60, label %.thread36

60:                                               ; preds = %57
  %61 = load i64, ptr @H5E_SYM_g, align 8
  %62 = load i64, ptr @H5E_PROTECT_g, align 8
  %63 = call i32 (ptr, ptr, i32, i64, i64, ptr, ...) @H5E_printf_stack(ptr noundef nonnull @.str, ptr noundef nonnull @__func__.H5G__stab_valid, i32 noundef 1010, i64 noundef %61, i64 noundef %62, ptr noundef nonnull @.str.6) #6
  br label %.thread36

.thread36:                                        ; preds = %43, %24, %9, %60, %57
  %.1 = phi i32 [ -1, %60 ], [ %.0, %57 ], [ -1, %9 ], [ -1, %24 ], [ -1, %43 ]
  %64 = load i64, ptr %4, align 8
  call void @H5AC_tag(i64 noundef %64, ptr noundef null) #6
  ret i32 %.1
}